target datalayout = "e-m:e-p270:32:32-p271:32:32-p272:64:64-i64:64-i128:128-f80:128-n8:16:32:64-S128"
target triple = "x86_64-pc-linux-gnu"

%struct.strbuf = type { i64, i64, ptr }
%struct.strvec = type { ptr, i64, i64 }
%struct.child_process = type { %struct.strvec, %struct.strvec, i32, i32, i64, ptr, ptr, i32, i32, i32, ptr, i16, ptr }

@.str = private unnamed_addr constant [5 x i8] c"TERM\00", align 1
@.str.1 = private unnamed_addr constant [5 x i8] c"dumb\00", align 1
@.str.13 = private unnamed_addr constant [35 x i8] c"Terminal is dumb, but EDITOR unset\00", align 1
@.str.14 = private unnamed_addr constant [2 x i8] c":\00", align 1
@__const.launch_specified_editor.realpath = private unnamed_addr constant %struct.strbuf { i64 0, i64 0, ptr @strbuf_slopbuf }, align 8
@stderr = external global ptr, align 8
@.str.15 = private unnamed_addr constant [53 x i8] c"hint: Waiting for your editor to close the file...%c\00", align 1
@.str.16 = private unnamed_addr constant [7 x i8] c"editor\00", align 1
@.str.17 = private unnamed_addr constant [28 x i8] c"unable to start editor '%s'\00", align 1
@.str.18 = private unnamed_addr constant [41 x i8] c"there was a problem with the editor '%s'\00", align 1
@.str.19 = private unnamed_addr constant [25 x i8] c"could not read file '%s'\00", align 1
@.str.20 = private unnamed_addr constant [1 x i8] zeroinitializer, align 1
@git_gettext_enabled = external global i32, align 4

; Function Attrs: inlinehint nounwind uwtable
define internal ptr @_(ptr noundef %0) #4 {
  %2 = alloca ptr, align 8
  %3 = alloca ptr, align 8
  store ptr %0, ptr %3, align 8, !tbaa !4
  %4 = load ptr, ptr %3, align 8, !tbaa !4
  %5 = load i8, ptr %4, align 1, !tbaa !17
  %6 = icmp ne i8 %5, 0
  br i1 %6, label %8, label %7

7:                                                ; preds = %1
  store ptr @.str.20, ptr %2, align 8
  br label %16

8:                                                ; preds = %1
  %9 = load i32, ptr @git_gettext_enabled, align 4, !tbaa !9
  %10 = icmp ne i32 %9, 0
  br i1 %10, label %13, label %11

11:                                               ; preds = %8
  %12 = load ptr, ptr %3, align 8, !tbaa !4
  store ptr %12, ptr %2, align 8
  br label %16

13:                                               ; preds = %8
  %14 = load ptr, ptr %3, align 8, !tbaa !4
  %15 = call ptr @dcgettext(ptr noundef null, ptr noundef %14, i32 noundef 5) #8
  store ptr %15, ptr %2, align 8
  br label %16

16:                                               ; preds = %13, %11, %7
  %17 = load ptr, ptr %2, align 8
  ret ptr %17
}

; Function Attrs: nounwind uwtable
define dso_local i32 @is_terminal_dumb() #0 {
  %1 = alloca ptr, align 8
  call void @llvm.lifetime.start.p0(i64 8, ptr %1) #8
  %2 = call ptr @getenv(ptr noundef @.str) #8
  store ptr %2, ptr %1, align 8, !tbaa !4
  %3 = load ptr, ptr %1, align 8, !tbaa !4
  %4 = icmp ne ptr %3, null
  br i1 %4, label %5, label %10

5:                                                ; preds = %0
  %6 = load ptr, ptr %1, align 8, !tbaa !4
  %7 = call i32 @strcmp(ptr noundef %6, ptr noundef @.str.1) #9
  %8 = icmp ne i32 %7, 0
  %9 = xor i1 %8, true
  br label %10

10:                                               ; preds = %5, %0
  %11 = phi i1 [ true, %0 ], [ %9, %5 ]
  %12 = zext i1 %11 to i32
  call void @llvm.lifetime.end.p0(i64 8, ptr %1) #8
  ret i32 %12
}

; Function Attrs: inlinehint nounwind uwtable
define internal i32 @const_error() #4 {
  ret i32 -1
}

; Function Attrs: nounwind uwtable
define internal i32 @launch_specified_editor(ptr noundef %0, ptr noundef %1, ptr noundef %2, ptr noundef %3) #0 {
  %5 = alloca i32, align 4
  %6 = alloca ptr, align 8
  %7 = alloca ptr, align 8
  %8 = alloca ptr, align 8
  %9 = alloca ptr, align 8
  %10 = alloca %struct.strbuf, align 8
  %11 = alloca %struct.child_process, align 8
  %12 = alloca i32, align 4
  %13 = alloca i32, align 4
  %14 = alloca i32, align 4
  %15 = alloca i8, align 1
  %16 = alloca i32, align 4
  store ptr %0, ptr %6, align 8, !tbaa !4
  store ptr %1, ptr %7, align 8, !tbaa !4
  store ptr %2, ptr %8, align 8, !tbaa !15
  store ptr %3, ptr %9, align 8, !tbaa !11
  %17 = load ptr, ptr %6, align 8, !tbaa !4
  %18 = icmp ne ptr %17, null
  br i1 %18, label %22, label %19

19:                                               ; preds = %4
  %20 = call i32 (ptr, ...) @error(ptr noundef @.str.13)
  %21 = call i32 @const_error()
  store i32 %21, ptr %5, align 4
  br label %121

22:                                               ; preds = %4
  %23 = load ptr, ptr %6, align 8, !tbaa !4
  %24 = call i32 @strcmp(ptr noundef %23, ptr noundef @.str.14) #9
  %25 = icmp ne i32 %24, 0
  br i1 %25, label %26, label %107

26:                                               ; preds = %22
  call void @llvm.lifetime.start.p0(i64 24, ptr %10) #8
  call void @llvm.memcpy.p0.p0.i64(ptr align 8 %10, ptr align 8 @__const.launch_specified_editor.realpath, i64 24, i1 false)
  call void @llvm.lifetime.start.p0(i64 120, ptr %11) #8
  call void @llvm.memcpy.p0.p0.i64(ptr align 8 %11, ptr align 8 @__const.launch_specified_editor.p, i64 120, i1 false)
  call void @llvm.lifetime.start.p0(i64 4, ptr %12) #8
  call void @llvm.lifetime.start.p0(i64 4, ptr %13) #8
  call void @llvm.lifetime.start.p0(i64 4, ptr %14) #8
  %27 = call i32 @advice_enabled(i32 noundef 44)
  %28 = icmp ne i32 %27, 0
  br i1 %28, label %29, label %32

29:                                               ; preds = %26
  %30 = call i32 @isatty(i32 noundef 2) #8
  %31 = icmp ne i32 %30, 0
  br label %32

32:                                               ; preds = %29, %26
  %33 = phi i1 [ false, %26 ], [ %31, %29 ]
  %34 = zext i1 %33 to i32
  store i32 %34, ptr %14, align 4, !tbaa !9
  %35 = load i32, ptr %14, align 4, !tbaa !9
  %36 = icmp ne i32 %35, 0
  br i1 %36, label %37, label %49

37:                                               ; preds = %32
  call void @llvm.lifetime.start.p0(i64 1, ptr %15) #8
  %38 = call i32 @is_terminal_dumb()
  %39 = icmp ne i32 %38, 0
  %40 = select i1 %39, i32 10, i32 32
  %41 = trunc i32 %40 to i8
  store i8 %41, ptr %15, align 1, !tbaa !17
  %42 = load ptr, ptr @stderr, align 8, !tbaa !18
  %43 = call ptr @_(ptr noundef @.str.15)
  %44 = load i8, ptr %15, align 1, !tbaa !17
  %45 = sext i8 %44 to i32
  %46 = call i32 (ptr, ptr, ...) @fprintf(ptr noundef %42, ptr noundef %43, i32 noundef %45) #8
  %47 = load ptr, ptr @stderr, align 8, !tbaa !18
  %48 = call i32 @fflush(ptr noundef %47)
  call void @llvm.lifetime.end.p0(i64 1, ptr %15) #8
  br label %49

49:                                               ; preds = %37, %32
  %50 = load ptr, ptr %7, align 8, !tbaa !4
  %51 = call ptr @strbuf_realpath(ptr noundef %10, ptr noundef %50, i32 noundef 1)
  %52 = getelementptr inbounds nuw %struct.child_process, ptr %11, i32 0, i32 0
  %53 = load ptr, ptr %6, align 8, !tbaa !4
  %54 = getelementptr inbounds nuw %struct.strbuf, ptr %10, i32 0, i32 2
  %55 = load ptr, ptr %54, align 8, !tbaa !20
  call void (ptr, ...) @strvec_pushl(ptr noundef %52, ptr noundef %53, ptr noundef %55, ptr noundef null)
  %56 = load ptr, ptr %9, align 8, !tbaa !11
  %57 = icmp ne ptr %56, null
  br i1 %57, label %58, label %61

58:                                               ; preds = %49
  %59 = getelementptr inbounds nuw %struct.child_process, ptr %11, i32 0, i32 1
  %60 = load ptr, ptr %9, align 8, !tbaa !11
  call void @strvec_pushv(ptr noundef %59, ptr noundef %60)
  br label %61

61:                                               ; preds = %58, %49
  %62 = getelementptr inbounds nuw %struct.child_process, ptr %11, i32 0, i32 11
  %63 = load i16, ptr %62, align 8
  %64 = and i16 %63, -33
  %65 = or i16 %64, 32
  store i16 %65, ptr %62, align 8
  %66 = getelementptr inbounds nuw %struct.child_process, ptr %11, i32 0, i32 5
  store ptr @.str.16, ptr %66, align 8, !tbaa !23
  %67 = call i32 @start_command(ptr noundef %11)
  %68 = icmp slt i32 %67, 0
  br i1 %68, label %69, label %73

69:                                               ; preds = %61
  call void @strbuf_release(ptr noundef %10)
  %70 = load ptr, ptr %6, align 8, !tbaa !4
  %71 = call i32 (ptr, ...) @error(ptr noundef @.str.17, ptr noundef %70)
  %72 = call i32 @const_error()
  store i32 %72, ptr %5, align 4
  store i32 1, ptr %16, align 4
  br label %104

73:                                               ; preds = %61
  %74 = call i32 @sigchain_push(i32 noundef 2, ptr noundef inttoptr (i64 1 to ptr))
  %75 = call i32 @sigchain_push(i32 noundef 3, ptr noundef inttoptr (i64 1 to ptr))
  %76 = call i32 @finish_command(ptr noundef %11)
  store i32 %76, ptr %12, align 4, !tbaa !9
  call void @strbuf_release(ptr noundef %10)
  %77 = load i32, ptr %12, align 4, !tbaa !9
  %78 = sub nsw i32 %77, 128
  store i32 %78, ptr %13, align 4, !tbaa !9
  %79 = call i32 @sigchain_pop(i32 noundef 2)
  %80 = call i32 @sigchain_pop(i32 noundef 3)
  %81 = load i32, ptr %13, align 4, !tbaa !9
  %82 = icmp eq i32 %81, 2
  br i1 %82, label %86, label %83

83:                                               ; preds = %73
  %84 = load i32, ptr %13, align 4, !tbaa !9
  %85 = icmp eq i32 %84, 3
  br i1 %85, label %86, label %89

86:                                               ; preds = %83, %73
  %87 = load i32, ptr %13, align 4, !tbaa !9
  %88 = call i32 @raise(i32 noundef %87) #8
  br label %89

89:                                               ; preds = %86, %83
  %90 = load i32, ptr %14, align 4, !tbaa !9
  %91 = icmp ne i32 %90, 0
  br i1 %91, label %92, label %96

92:                                               ; preds = %89
  %93 = call i32 @is_terminal_dumb()
  %94 = icmp ne i32 %93, 0
  br i1 %94, label %96, label %95

95:                                               ; preds = %92
  call void @term_clear_line()
  br label %96

96:                                               ; preds = %95, %92, %89
  %97 = load i32, ptr %12, align 4, !tbaa !9
  %98 = icmp ne i32 %97, 0
  br i1 %98, label %99, label %103

99:                                               ; preds = %96
  %100 = load ptr, ptr %6, align 8, !tbaa !4
  %101 = call i32 (ptr, ...) @error(ptr noundef @.str.18, ptr noundef %100)
  %102 = call i32 @const_error()
  store i32 %102, ptr %5, align 4
  store i32 1, ptr %16, align 4
  br label %104

103:                                              ; preds = %96
  store i32 0, ptr %16, align 4
  br label %104

104:                                              ; preds = %103, %99, %69
  call void @llvm.lifetime.end.p0(i64 4, ptr %14) #8
  call void @llvm.lifetime.end.p0(i64 4, ptr %13) #8
  call void @llvm.lifetime.end.p0(i64 4, ptr %12) #8
  call void @llvm.lifetime.end.p0(i64 120, ptr %11) #8
  call void @llvm.lifetime.end.p0(i64 24, ptr %10) #8
  %105 = load i32, ptr %16, align 4
  switch i32 %105, label %123 [
    i32 0, label %106
    i32 1, label %121
  ]

106:                                              ; preds = %104
  br label %107

107:                                              ; preds = %106, %22
  %108 = load ptr, ptr %8, align 8, !tbaa !15
  %109 = icmp ne ptr %108, null
  br i1 %109, label %111, label %110

110:                                              ; preds = %107
  store i32 0, ptr %5, align 4
  br label %121

111:                                              ; preds = %107
  %112 = load ptr, ptr %8, align 8, !tbaa !15
  %113 = load ptr, ptr %7, align 8, !tbaa !4
  %114 = call i64 @strbuf_read_file(ptr noundef %112, ptr noundef %113, i64 noundef 0)
  %115 = icmp slt i64 %114, 0
  br i1 %115, label %116, label %120

116:                                              ; preds = %111
  %117 = load ptr, ptr %7, align 8, !tbaa !4
  %118 = call i32 (ptr, ...) @error_errno(ptr noundef @.str.19, ptr noundef %117)
  %119 = call i32 @const_error()
  store i32 %119, ptr %5, align 4
  br label %121

120:                                              ; preds = %111
  store i32 0, ptr %5, align 4
  br label %121

121:                                              ; preds = %120, %116, %110, %104, %19
  %122 = load i32, ptr %5, align 4
  ret i32 %122

123:                                              ; preds = %104
  unreachable
}