; Function Attrs: nounwind uwtable
define internal fastcc range(i32 -1, 1) i32 @launch_specified_editor(ptr noundef %0, ptr noundef %1, ptr noundef %2, ptr noundef %3) unnamed_addr #4 {
  %5 = alloca %struct.strbuf, align 8
  %6 = alloca %struct.child_process, align 8
  %.not = icmp eq ptr %0, null
  br i1 %.not, label %7, label %sub_0

7:                                                ; preds = %4
  %8 = tail call i32 (ptr, ...) @error(ptr noundef nonnull @.str.13) #10
  br label %65

sub_0:                                            ; preds = %4
  %9 = load i8, ptr %0, align 1
  %.not41 = icmp eq i8 %9, 58
  br i1 %.not41, label %.tail, label %.tail.thread

.tail:                                            ; preds = %sub_0
  %10 = getelementptr inbounds nuw i8, ptr %0, i64 1
  %11 = load i8, ptr %10, align 1
  %12 = icmp eq i8 %11, 0
  br i1 %12, label %59, label %.tail.thread

.tail.thread:                                     ; preds = %sub_0, %.tail
  call void @llvm.lifetime.start.p0(i64 24, ptr nonnull %5) #10
  call void @llvm.memcpy.p0.p0.i64(ptr noundef nonnull align 8 dereferenceable(24) %5, ptr noundef nonnull align 8 dereferenceable(24) @__const.launch_specified_editor.realpath, i64 24, i1 false)
  call void @llvm.lifetime.start.p0(i64 120, ptr nonnull %6) #10
  call void @llvm.memcpy.p0.p0.i64(ptr noundef nonnull align 8 dereferenceable(120) %6, ptr noundef nonnull align 8 dereferenceable(120) @__const.launch_specified_editor.p, i64 120, i1 false)
  %13 = tail call i32 @advice_enabled(i32 noundef 44) #10
  %.not27 = icmp eq i32 %13, 0
  br i1 %.not27, label %.thread, label %14

14:                                               ; preds = %.tail.thread
  %15 = tail call i32 @isatty(i32 noundef 2) #10
  %.not40 = icmp eq i32 %15, 0
  br i1 %.not40, label %.thread, label %16

16:                                               ; preds = %14
  %17 = tail call ptr @getenv(ptr noundef nonnull @.str) #10
  %.not.i = icmp eq ptr %17, null
  br i1 %.not.i, label %is_terminal_dumb.exit, label %18

18:                                               ; preds = %16
  %19 = tail call i32 @strcmp(ptr noundef nonnull dereferenceable(1) %17, ptr noundef nonnull dereferenceable(5) @.str.1) #11
  %.not2.i.not = icmp eq i32 %19, 0
  %20 = select i1 %.not2.i.not, i32 10, i32 32
  br label %is_terminal_dumb.exit

is_terminal_dumb.exit:                            ; preds = %16, %18
  %.not28 = phi i32 [ 10, %16 ], [ %20, %18 ]
  %21 = load ptr, ptr @stderr, align 8, !tbaa !11
  %22 = load i32, ptr @git_gettext_enabled, align 4, !tbaa !13
  %.not4.i = icmp eq i32 %22, 0
  br i1 %.not4.i, label %_.exit, label %23

23:                                               ; preds = %is_terminal_dumb.exit
  %24 = tail call ptr @dcgettext(ptr noundef null, ptr noundef nonnull @.str.15, i32 noundef 5) #10
  br label %_.exit

_.exit:                                           ; preds = %is_terminal_dumb.exit, %23
  %.0.i = phi ptr [ %24, %23 ], [ @.str.15, %is_terminal_dumb.exit ]
  %25 = tail call i32 (ptr, ptr, ...) @fprintf(ptr noundef %21, ptr noundef %.0.i, i32 noundef %.not28) #12
  %26 = load ptr, ptr @stderr, align 8, !tbaa !11
  %27 = tail call i32 @fflush(ptr noundef %26)
  br label %.thread

.thread:                                          ; preds = %.tail.thread, %_.exit, %14
  %28 = phi i1 [ true, %_.exit ], [ false, %14 ], [ false, %.tail.thread ]
  %29 = call ptr @strbuf_realpath(ptr noundef nonnull %5, ptr noundef %1, i32 noundef 1) #10
  %30 = getelementptr inbounds nuw i8, ptr %5, i64 16
  %31 = load ptr, ptr %30, align 8, !tbaa !15
  call void (ptr, ...) @strvec_pushl(ptr noundef nonnull %6, ptr noundef nonnull %0, ptr noundef %31, ptr noundef null) #10
  %.not29 = icmp eq ptr %3, null
  br i1 %.not29, label %34, label %32

32:                                               ; preds = %.thread
  %33 = getelementptr inbounds nuw i8, ptr %6, i64 24
  call void @strvec_pushv(ptr noundef nonnull %33, ptr noundef nonnull %3) #10
  br label %34

34:                                               ; preds = %32, %.thread
  %35 = getelementptr inbounds nuw i8, ptr %6, i64 104
  %36 = load i16, ptr %35, align 8
  %37 = or i16 %36, 32
  store i16 %37, ptr %35, align 8
  %38 = getelementptr inbounds nuw i8, ptr %6, i64 64
  store ptr @.str.16, ptr %38, align 8, !tbaa !18
  %39 = call i32 @start_command(ptr noundef nonnull %6) #10
  %40 = icmp slt i32 %39, 0
  br i1 %40, label %41, label %42

41:                                               ; preds = %34
  call void @strbuf_release(ptr noundef nonnull %5) #10
  br label %.thread37

42:                                               ; preds = %34
  %43 = call i32 @sigchain_push(i32 noundef 2, ptr noundef nonnull inttoptr (i64 1 to ptr)) #10
  %44 = call i32 @sigchain_push(i32 noundef 3, ptr noundef nonnull inttoptr (i64 1 to ptr)) #10
  %45 = call i32 @finish_command(ptr noundef nonnull %6) #10
  call void @strbuf_release(ptr noundef nonnull %5) #10
  %46 = call i32 @sigchain_pop(i32 noundef 2) #10
  %47 = call i32 @sigchain_pop(i32 noundef 3) #10
  %48 = and i32 %45, -2
  %or.cond = icmp eq i32 %48, 130
  br i1 %or.cond, label %49, label %52

49:                                               ; preds = %42
  %50 = add nsw i32 %45, -128
  %51 = call i32 @raise(i32 noundef %50) #10
  br label %52

52:                                               ; preds = %42, %49
  br i1 %28, label %53, label %is_terminal_dumb.exit35.thread

53:                                               ; preds = %52
  %54 = call ptr @getenv(ptr noundef nonnull @.str) #10
  %.not.i33 = icmp eq ptr %54, null
  br i1 %.not.i33, label %is_terminal_dumb.exit35.thread, label %is_terminal_dumb.exit35

is_terminal_dumb.exit35:                          ; preds = %53
  %55 = call i32 @strcmp(ptr noundef nonnull dereferenceable(1) %54, ptr noundef nonnull dereferenceable(5) @.str.1) #11
  %.not2.i34.not = icmp eq i32 %55, 0
  br i1 %.not2.i34.not, label %is_terminal_dumb.exit35.thread, label %56

56:                                               ; preds = %is_terminal_dumb.exit35
  call void @term_clear_line() #10
  br label %is_terminal_dumb.exit35.thread

is_terminal_dumb.exit35.thread:                   ; preds = %53, %56, %is_terminal_dumb.exit35, %52
  %.not31 = icmp eq i32 %45, 0
  br i1 %.not31, label %58, label %.thread37

.thread37:                                        ; preds = %is_terminal_dumb.exit35.thread, %41
  %.str.17.sink = phi ptr [ @.str.17, %41 ], [ @.str.18, %is_terminal_dumb.exit35.thread ]
  %57 = call i32 (ptr, ...) @error(ptr noundef nonnull %.str.17.sink, ptr noundef nonnull %0) #10
  call void @llvm.lifetime.end.p0(i64 120, ptr nonnull %6) #10
  call void @llvm.lifetime.end.p0(i64 24, ptr nonnull %5) #10
  br label %65

58:                                               ; preds = %is_terminal_dumb.exit35.thread
  call void @llvm.lifetime.end.p0(i64 120, ptr nonnull %6) #10
  call void @llvm.lifetime.end.p0(i64 24, ptr nonnull %5) #10
  br label %59

59:                                               ; preds = %58, %.tail
  %.not32 = icmp eq ptr %2, null
  br i1 %.not32, label %65, label %60

60:                                               ; preds = %59
  %61 = call i64 @strbuf_read_file(ptr noundef nonnull %2, ptr noundef %1, i64 noundef 0) #10
  %62 = icmp slt i64 %61, 0
  br i1 %62, label %63, label %65

63:                                               ; preds = %60
  %64 = call i32 (ptr, ...) @error_errno(ptr noundef nonnull @.str.19, ptr noundef %1) #10
  br label %65

65:                                               ; preds = %.thread37, %60, %59, %63, %7
  %.022 = phi i32 [ -1, %63 ], [ -1, %7 ], [ 0, %59 ], [ 0, %60 ], [ -1, %.thread37 ]
  ret i32 %.022
}